target datalayout = "e-m:e-p270:32:32-p271:32:32-p272:64:64-i64:64-i128:128-f80:128-n8:16:32:64-S128"
target triple = "x86_64-pc-linux-gnu"

%struct.Vec_Ptr_t_ = type { i32, i32, ptr }
%struct.Vec_Int_t_ = type { i32, i32, ptr }
%struct.DdManager = type { %struct.DdNode, ptr, ptr, ptr, ptr, ptr, ptr, ptr, i32, i32, double, double, double, i32, i32, i32, i32, i32, i32, ptr, ptr, %struct.DdSubtable, i32, i32, i32, i32, i32, i32, i32, double, i32, i32, i32, ptr, i64, double, i32, ptr, ptr, ptr, ptr, ptr, ptr, ptr, i32, ptr, ptr, ptr, ptr, ptr, ptr, i32, i32, i32, double, i32, i32, i32, i32, double, double, i32, i32, i32, i32, i32, i32, i32, i32, i32, ptr, ptr, i32, i32, i32, i32, i32, i32, ptr, ptr, ptr, ptr, ptr, ptr, ptr, ptr, i32, i64, i64, i64, i32, i64, i64, double, double, double, double, double, double, i32, ptr, ptr, i64 }
%struct.DdNode = type { i32, i32, ptr, %union.anon.1, i64 }
%union.anon.1 = type { %struct.DdChildren }
%struct.DdChildren = type { ptr, ptr }
%struct.DdSubtable = type { ptr, i32, i32, i32, i32, i32, i32, i32, i32, i32, i32, i32 }
%struct.Llb_Mnx_t_ = type { ptr, ptr, ptr, ptr, ptr, ptr, ptr, ptr, ptr, ptr, ptr, i64, i64, i64, i64, i64 }
%struct.Gia_ParLlb_t_ = type { i32, i32, i32, i32, i32, i32, i32, i32, i32, i32, i32, i32, i32, i32, i32, i32, i32, i32, i32, i32, i32, i32, i32, i64, i32 }
%struct.timespec = type { i64, i64 }

; Function Attrs: inlinehint nounwind uwtable
define internal ptr @Vec_PtrAlloc(i32 noundef %0) #3 {
  %2 = alloca i32, align 4
  %3 = alloca ptr, align 8
  store i32 %0, ptr %2, align 4, !tbaa !13
  call void @llvm.lifetime.start.p0(i64 8, ptr %3) #11
  %4 = call noalias ptr @malloc(i64 noundef 16) #12
  store ptr %4, ptr %3, align 8, !tbaa !31
  %5 = load i32, ptr %2, align 4, !tbaa !13
  %6 = icmp sgt i32 %5, 0
  br i1 %6, label %7, label %11

7:                                                ; preds = %1
  %8 = load i32, ptr %2, align 4, !tbaa !13
  %9 = icmp slt i32 %8, 8
  br i1 %9, label %10, label %11

10:                                               ; preds = %7
  store i32 8, ptr %2, align 4, !tbaa !13
  br label %11

11:                                               ; preds = %10, %7, %1
  %12 = load ptr, ptr %3, align 8, !tbaa !31
  %13 = getelementptr inbounds nuw %struct.Vec_Ptr_t_, ptr %12, i32 0, i32 1
  store i32 0, ptr %13, align 4, !tbaa !40
  %14 = load i32, ptr %2, align 4, !tbaa !13
  %15 = load ptr, ptr %3, align 8, !tbaa !31
  %16 = getelementptr inbounds nuw %struct.Vec_Ptr_t_, ptr %15, i32 0, i32 0
  store i32 %14, ptr %16, align 8, !tbaa !58
  %17 = load ptr, ptr %3, align 8, !tbaa !31
  %18 = getelementptr inbounds nuw %struct.Vec_Ptr_t_, ptr %17, i32 0, i32 0
  %19 = load i32, ptr %18, align 8, !tbaa !58
  %20 = icmp ne i32 %19, 0
  br i1 %20, label %21, label %28

21:                                               ; preds = %11
  %22 = load ptr, ptr %3, align 8, !tbaa !31
  %23 = getelementptr inbounds nuw %struct.Vec_Ptr_t_, ptr %22, i32 0, i32 0
  %24 = load i32, ptr %23, align 8, !tbaa !58
  %25 = sext i32 %24 to i64
  %26 = mul i64 8, %25
  %27 = call noalias ptr @malloc(i64 noundef %26) #12
  br label %29

28:                                               ; preds = %11
  br label %29

29:                                               ; preds = %28, %21
  %30 = phi ptr [ %27, %21 ], [ null, %28 ]
  %31 = load ptr, ptr %3, align 8, !tbaa !31
  %32 = getelementptr inbounds nuw %struct.Vec_Ptr_t_, ptr %31, i32 0, i32 2
  store ptr %30, ptr %32, align 8, !tbaa !42
  %33 = load ptr, ptr %3, align 8, !tbaa !31
  call void @llvm.lifetime.end.p0(i64 8, ptr %3) #11
  ret ptr %33
}

; Function Attrs: inlinehint nounwind uwtable
define internal i32 @Vec_IntCountPositive(ptr noundef %0) #3 {
  %2 = alloca ptr, align 8
  %3 = alloca i32, align 4
  %4 = alloca i32, align 4
  store ptr %0, ptr %2, align 8, !tbaa !10
  call void @llvm.lifetime.start.p0(i64 4, ptr %3) #11
  call void @llvm.lifetime.start.p0(i64 4, ptr %4) #11
  store i32 0, ptr %4, align 4, !tbaa !13
  store i32 0, ptr %3, align 4, !tbaa !13
  br label %5

5:                                                ; preds = %23, %1
  %6 = load i32, ptr %3, align 4, !tbaa !13
  %7 = load ptr, ptr %2, align 8, !tbaa !10
  %8 = getelementptr inbounds nuw %struct.Vec_Int_t_, ptr %7, i32 0, i32 1
  %9 = load i32, ptr %8, align 4, !tbaa !61
  %10 = icmp slt i32 %6, %9
  br i1 %10, label %11, label %26

11:                                               ; preds = %5
  %12 = load ptr, ptr %2, align 8, !tbaa !10
  %13 = getelementptr inbounds nuw %struct.Vec_Int_t_, ptr %12, i32 0, i32 2
  %14 = load ptr, ptr %13, align 8, !tbaa !63
  %15 = load i32, ptr %3, align 4, !tbaa !13
  %16 = sext i32 %15 to i64
  %17 = getelementptr inbounds i32, ptr %14, i64 %16
  %18 = load i32, ptr %17, align 4, !tbaa !13
  %19 = icmp sgt i32 %18, 0
  %20 = zext i1 %19 to i32
  %21 = load i32, ptr %4, align 4, !tbaa !13
  %22 = add nsw i32 %21, %20
  store i32 %22, ptr %4, align 4, !tbaa !13
  br label %23

23:                                               ; preds = %11
  %24 = load i32, ptr %3, align 4, !tbaa !13
  %25 = add nsw i32 %24, 1
  store i32 %25, ptr %3, align 4, !tbaa !13
  br label %5, !llvm.loop !147

26:                                               ; preds = %5
  %27 = load i32, ptr %4, align 4, !tbaa !13
  call void @llvm.lifetime.end.p0(i64 4, ptr %4) #11
  call void @llvm.lifetime.end.p0(i64 4, ptr %3) #11
  ret i32 %27
}

; Function Attrs: inlinehint nounwind uwtable
define internal i64 @Abc_Clock() #3 {
  %1 = alloca i64, align 8
  %2 = alloca %struct.timespec, align 8
  %3 = alloca i32, align 4
  %4 = alloca i64, align 8
  call void @llvm.lifetime.start.p0(i64 16, ptr %2) #11
  %5 = call i32 @clock_gettime(i32 noundef 1, ptr noundef %2) #11
  %6 = icmp slt i32 %5, 0
  br i1 %6, label %7, label %8

7:                                                ; preds = %0
  store i64 -1, ptr %1, align 8
  store i32 1, ptr %3, align 4
  br label %19

8:                                                ; preds = %0
  call void @llvm.lifetime.start.p0(i64 8, ptr %4) #11
  %9 = getelementptr inbounds nuw %struct.timespec, ptr %2, i32 0, i32 0
  %10 = load i64, ptr %9, align 8, !tbaa !161
  %11 = mul nsw i64 %10, 1000000
  store i64 %11, ptr %4, align 8, !tbaa !93
  %12 = getelementptr inbounds nuw %struct.timespec, ptr %2, i32 0, i32 1
  %13 = load i64, ptr %12, align 8, !tbaa !163
  %14 = mul nsw i64 %13, 1000000
  %15 = sdiv i64 %14, 1000000000
  %16 = load i64, ptr %4, align 8, !tbaa !93
  %17 = add nsw i64 %16, %15
  store i64 %17, ptr %4, align 8, !tbaa !93
  %18 = load i64, ptr %4, align 8, !tbaa !93
  store i64 %18, ptr %1, align 8
  store i32 1, ptr %3, align 4
  call void @llvm.lifetime.end.p0(i64 8, ptr %4) #11
  br label %19

19:                                               ; preds = %8, %7
  call void @llvm.lifetime.end.p0(i64 16, ptr %2) #11
  %20 = load i64, ptr %1, align 8
  ret i64 %20
}

; Function Attrs: nounwind uwtable
define ptr @Llb_MnxStart(ptr noundef %0, ptr noundef %1) #0 {
  %3 = alloca ptr, align 8
  %4 = alloca ptr, align 8
  %5 = alloca ptr, align 8
  store ptr %0, ptr %3, align 8, !tbaa !8
  store ptr %1, ptr %4, align 8, !tbaa !143
  call void @llvm.lifetime.start.p0(i64 8, ptr %5) #11
  %6 = call noalias ptr @calloc(i64 noundef 1, i64 noundef 128) #14
  store ptr %6, ptr %5, align 8, !tbaa !100
  %7 = load ptr, ptr %3, align 8, !tbaa !8
  %8 = load ptr, ptr %5, align 8, !tbaa !100
  %9 = getelementptr inbounds nuw %struct.Llb_Mnx_t_, ptr %8, i32 0, i32 0
  store ptr %7, ptr %9, align 8, !tbaa !106
  %10 = load ptr, ptr %4, align 8, !tbaa !143
  %11 = load ptr, ptr %5, align 8, !tbaa !100
  %12 = getelementptr inbounds nuw %struct.Llb_Mnx_t_, ptr %11, i32 0, i32 1
  store ptr %10, ptr %12, align 8, !tbaa !115
  %13 = load ptr, ptr %5, align 8, !tbaa !100
  %14 = getelementptr inbounds nuw %struct.Llb_Mnx_t_, ptr %13, i32 0, i32 1
  %15 = load ptr, ptr %14, align 8, !tbaa !115
  %16 = getelementptr inbounds nuw %struct.Gia_ParLlb_t_, ptr %15, i32 0, i32 21
  %17 = load i32, ptr %16, align 4, !tbaa !123
  %18 = icmp ne i32 %17, 0
  br i1 %18, label %19, label %29

19:                                               ; preds = %2
  %20 = load ptr, ptr %5, align 8, !tbaa !100
  %21 = getelementptr inbounds nuw %struct.Llb_Mnx_t_, ptr %20, i32 0, i32 1
  %22 = load ptr, ptr %21, align 8, !tbaa !115
  %23 = getelementptr inbounds nuw %struct.Gia_ParLlb_t_, ptr %22, i32 0, i32 21
  %24 = load i32, ptr %23, align 4, !tbaa !123
  %25 = sext i32 %24 to i64
  %26 = mul nsw i64 %25, 1000000
  %27 = call i64 @Abc_Clock()
  %28 = add nsw i64 %26, %27
  br label %30

29:                                               ; preds = %2
  br label %30

30:                                               ; preds = %29, %19
  %31 = phi i64 [ %28, %19 ], [ 0, %29 ]
  %32 = load ptr, ptr %5, align 8, !tbaa !100
  %33 = getelementptr inbounds nuw %struct.Llb_Mnx_t_, ptr %32, i32 0, i32 1
  %34 = load ptr, ptr %33, align 8, !tbaa !115
  %35 = getelementptr inbounds nuw %struct.Gia_ParLlb_t_, ptr %34, i32 0, i32 23
  store i64 %31, ptr %35, align 8, !tbaa !127
  %36 = load ptr, ptr %4, align 8, !tbaa !143
  %37 = getelementptr inbounds nuw %struct.Gia_ParLlb_t_, ptr %36, i32 0, i32 13
  %38 = load i32, ptr %37, align 4, !tbaa !119
  %39 = icmp ne i32 %38, 0
  br i1 %39, label %40, label %68

40:                                               ; preds = %30
  %41 = load ptr, ptr %5, align 8, !tbaa !100
  %42 = getelementptr inbounds nuw %struct.Llb_Mnx_t_, ptr %41, i32 0, i32 0
  %43 = load ptr, ptr %42, align 8, !tbaa !106
  %44 = load ptr, ptr %4, align 8, !tbaa !143
  %45 = getelementptr inbounds nuw %struct.Gia_ParLlb_t_, ptr %44, i32 0, i32 0
  %46 = load i32, ptr %45, align 8, !tbaa !144
  %47 = load ptr, ptr %4, align 8, !tbaa !143
  %48 = getelementptr inbounds nuw %struct.Gia_ParLlb_t_, ptr %47, i32 0, i32 2
  %49 = load i32, ptr %48, align 8, !tbaa !145
  %50 = load ptr, ptr %5, align 8, !tbaa !100
  %51 = getelementptr inbounds nuw %struct.Llb_Mnx_t_, ptr %50, i32 0, i32 2
  %52 = load ptr, ptr %5, align 8, !tbaa !100
  %53 = getelementptr inbounds nuw %struct.Llb_Mnx_t_, ptr %52, i32 0, i32 9
  %54 = load ptr, ptr %5, align 8, !tbaa !100
  %55 = getelementptr inbounds nuw %struct.Llb_Mnx_t_, ptr %54, i32 0, i32 8
  %56 = load ptr, ptr %4, align 8, !tbaa !143
  %57 = getelementptr inbounds nuw %struct.Gia_ParLlb_t_, ptr %56, i32 0, i32 16
  %58 = load i32, ptr %57, align 8, !tbaa !128
  call void @Llb4_Nonlin4Sweep(ptr noundef %43, i32 noundef %46, i32 noundef %49, ptr noundef %51, ptr noundef %53, ptr noundef %55, i32 noundef %58)
  %59 = load ptr, ptr %5, align 8, !tbaa !100
  %60 = getelementptr inbounds nuw %struct.Llb_Mnx_t_, ptr %59, i32 0, i32 1
  %61 = load ptr, ptr %60, align 8, !tbaa !115
  %62 = getelementptr inbounds nuw %struct.Gia_ParLlb_t_, ptr %61, i32 0, i32 23
  %63 = load i64, ptr %62, align 8, !tbaa !127
  %64 = load ptr, ptr %5, align 8, !tbaa !100
  %65 = getelementptr inbounds nuw %struct.Llb_Mnx_t_, ptr %64, i32 0, i32 2
  %66 = load ptr, ptr %65, align 8, !tbaa !102
  %67 = getelementptr inbounds nuw %struct.DdManager, ptr %66, i32 0, i32 102
  store i64 %63, ptr %67, align 8, !tbaa !81
  br label %106

68:                                               ; preds = %30
  %69 = load ptr, ptr %3, align 8, !tbaa !8
  %70 = call ptr @Llb_Nonlin4CreateOrder(ptr noundef %69)
  %71 = load ptr, ptr %5, align 8, !tbaa !100
  %72 = getelementptr inbounds nuw %struct.Llb_Mnx_t_, ptr %71, i32 0, i32 9
  store ptr %70, ptr %72, align 8, !tbaa !108
  %73 = load ptr, ptr %5, align 8, !tbaa !100
  %74 = getelementptr inbounds nuw %struct.Llb_Mnx_t_, ptr %73, i32 0, i32 9
  %75 = load ptr, ptr %74, align 8, !tbaa !108
  %76 = call i32 @Vec_IntCountPositive(ptr noundef %75)
  %77 = add nsw i32 %76, 1
  %78 = call ptr @Cudd_Init(i32 noundef %77, i32 noundef 0, i32 noundef 256, i32 noundef 262144, i64 noundef 0)
  %79 = load ptr, ptr %5, align 8, !tbaa !100
  %80 = getelementptr inbounds nuw %struct.Llb_Mnx_t_, ptr %79, i32 0, i32 2
  store ptr %78, ptr %80, align 8, !tbaa !102
  %81 = load ptr, ptr %5, align 8, !tbaa !100
  %82 = getelementptr inbounds nuw %struct.Llb_Mnx_t_, ptr %81, i32 0, i32 2
  %83 = load ptr, ptr %82, align 8, !tbaa !102
  call void @Cudd_AutodynEnable(ptr noundef %83, i32 noundef 6)
  %84 = load ptr, ptr %5, align 8, !tbaa !100
  %85 = getelementptr inbounds nuw %struct.Llb_Mnx_t_, ptr %84, i32 0, i32 2
  %86 = load ptr, ptr %85, align 8, !tbaa !102
  call void @Cudd_SetMaxGrowth(ptr noundef %86, double noundef 1.050000e+00)
  %87 = load ptr, ptr %5, align 8, !tbaa !100
  %88 = getelementptr inbounds nuw %struct.Llb_Mnx_t_, ptr %87, i32 0, i32 1
  %89 = load ptr, ptr %88, align 8, !tbaa !115
  %90 = getelementptr inbounds nuw %struct.Gia_ParLlb_t_, ptr %89, i32 0, i32 23
  %91 = load i64, ptr %90, align 8, !tbaa !127
  %92 = load ptr, ptr %5, align 8, !tbaa !100
  %93 = getelementptr inbounds nuw %struct.Llb_Mnx_t_, ptr %92, i32 0, i32 2
  %94 = load ptr, ptr %93, align 8, !tbaa !102
  %95 = getelementptr inbounds nuw %struct.DdManager, ptr %94, i32 0, i32 102
  store i64 %91, ptr %95, align 8, !tbaa !81
  %96 = load ptr, ptr %5, align 8, !tbaa !100
  %97 = getelementptr inbounds nuw %struct.Llb_Mnx_t_, ptr %96, i32 0, i32 2
  %98 = load ptr, ptr %97, align 8, !tbaa !102
  %99 = load ptr, ptr %3, align 8, !tbaa !8
  %100 = load ptr, ptr %5, align 8, !tbaa !100
  %101 = getelementptr inbounds nuw %struct.Llb_Mnx_t_, ptr %100, i32 0, i32 9
  %102 = load ptr, ptr %101, align 8, !tbaa !108
  %103 = call ptr @Llb_Nonlin4DerivePartitions(ptr noundef %98, ptr noundef %99, ptr noundef %102)
  %104 = load ptr, ptr %5, align 8, !tbaa !100
  %105 = getelementptr inbounds nuw %struct.Llb_Mnx_t_, ptr %104, i32 0, i32 8
  store ptr %103, ptr %105, align 8, !tbaa !109
  br label %106

106:                                              ; preds = %68, %40
  %107 = load ptr, ptr %5, align 8, !tbaa !100
  %108 = getelementptr inbounds nuw %struct.Llb_Mnx_t_, ptr %107, i32 0, i32 2
  %109 = load ptr, ptr %108, align 8, !tbaa !102
  %110 = load ptr, ptr %3, align 8, !tbaa !8
  %111 = load ptr, ptr %5, align 8, !tbaa !100
  %112 = getelementptr inbounds nuw %struct.Llb_Mnx_t_, ptr %111, i32 0, i32 9
  %113 = load ptr, ptr %112, align 8, !tbaa !108
  call void @Llb_Nonlin4SetupVarMap(ptr noundef %109, ptr noundef %110, ptr noundef %113)
  %114 = load ptr, ptr %5, align 8, !tbaa !100
  %115 = getelementptr inbounds nuw %struct.Llb_Mnx_t_, ptr %114, i32 0, i32 2
  %116 = load ptr, ptr %115, align 8, !tbaa !102
  %117 = load ptr, ptr %3, align 8, !tbaa !8
  %118 = load ptr, ptr %5, align 8, !tbaa !100
  %119 = getelementptr inbounds nuw %struct.Llb_Mnx_t_, ptr %118, i32 0, i32 9
  %120 = load ptr, ptr %119, align 8, !tbaa !108
  %121 = load ptr, ptr %5, align 8, !tbaa !100
  %122 = getelementptr inbounds nuw %struct.Llb_Mnx_t_, ptr %121, i32 0, i32 1
  %123 = load ptr, ptr %122, align 8, !tbaa !115
  %124 = getelementptr inbounds nuw %struct.Gia_ParLlb_t_, ptr %123, i32 0, i32 9
  %125 = load i32, ptr %124, align 4, !tbaa !116
  %126 = call ptr @Llb_Nonlin4CreateVars2Q(ptr noundef %116, ptr noundef %117, ptr noundef %120, i32 noundef %125)
  %127 = load ptr, ptr %5, align 8, !tbaa !100
  %128 = getelementptr inbounds nuw %struct.Llb_Mnx_t_, ptr %127, i32 0, i32 10
  store ptr %126, ptr %128, align 8, !tbaa !133
  %129 = call ptr @Vec_PtrAlloc(i32 noundef 100)
  %130 = load ptr, ptr %5, align 8, !tbaa !100
  %131 = getelementptr inbounds nuw %struct.Llb_Mnx_t_, ptr %130, i32 0, i32 7
  store ptr %129, ptr %131, align 8, !tbaa !105
  %132 = load ptr, ptr %4, align 8, !tbaa !143
  %133 = getelementptr inbounds nuw %struct.Gia_ParLlb_t_, ptr %132, i32 0, i32 10
  %134 = load i32, ptr %133, align 8, !tbaa !146
  %135 = icmp ne i32 %134, 0
  br i1 %135, label %136, label %140

136:                                              ; preds = %106
  %137 = load ptr, ptr %5, align 8, !tbaa !100
  %138 = getelementptr inbounds nuw %struct.Llb_Mnx_t_, ptr %137, i32 0, i32 2
  %139 = load ptr, ptr %138, align 8, !tbaa !102
  call void @Llb_Nonlin4Reorder(ptr noundef %139, i32 noundef 0, i32 noundef 1)
  br label %140

140:                                              ; preds = %136, %106
  %141 = load ptr, ptr %5, align 8, !tbaa !100
  call void @llvm.lifetime.end.p0(i64 8, ptr %5) #11
  ret ptr %141
}