; Function Attrs: nounwind uwtable
define noundef ptr @Llb_MnxStart(ptr noundef %0, ptr noundef %1) local_unnamed_addr #0 {
  %3 = alloca %struct.timespec, align 8
  %4 = tail call noalias dereferenceable_or_null(128) ptr @calloc(i64 noundef 1, i64 noundef 128) #22
  store ptr %0, ptr %4, align 8, !tbaa !93
  %5 = getelementptr inbounds nuw i8, ptr %4, i64 8
  store ptr %1, ptr %5, align 8, !tbaa !104
  %6 = getelementptr inbounds nuw i8, ptr %1, i64 84
  %7 = load i32, ptr %6, align 4, !tbaa !112
  %.not = icmp eq i32 %7, 0
  br i1 %.not, label %21, label %8

8:                                                ; preds = %2
  %9 = sext i32 %7 to i64
  %10 = mul nsw i64 %9, 1000000
  call void @llvm.lifetime.start.p0(i64 16, ptr nonnull %3) #18
  %11 = call i32 @clock_gettime(i32 noundef 1, ptr noundef nonnull %3) #18
  %12 = icmp slt i32 %11, 0
  br i1 %12, label %Abc_Clock.exit, label %13

13:                                               ; preds = %8
  %14 = load i64, ptr %3, align 8, !tbaa !101
  %15 = mul nsw i64 %14, 1000000
  %16 = getelementptr inbounds nuw i8, ptr %3, i64 8
  %17 = load i64, ptr %16, align 8, !tbaa !103
  %18 = sdiv i64 %17, 1000
  %19 = add nsw i64 %18, %15
  br label %Abc_Clock.exit

Abc_Clock.exit:                                   ; preds = %8, %13
  %.0.i = phi i64 [ %19, %13 ], [ -1, %8 ]
  call void @llvm.lifetime.end.p0(i64 16, ptr nonnull %3) #18
  %20 = add nsw i64 %.0.i, %10
  br label %21

21:                                               ; preds = %2, %Abc_Clock.exit
  %22 = phi i64 [ %20, %Abc_Clock.exit ], [ 0, %2 ]
  %23 = getelementptr inbounds nuw i8, ptr %1, i64 96
  store i64 %22, ptr %23, align 8, !tbaa !116
  %24 = getelementptr inbounds nuw i8, ptr %1, i64 52
  %25 = load i32, ptr %24, align 4, !tbaa !108
  %.not41 = icmp eq i32 %25, 0
  br i1 %.not41, label %40, label %26

26:                                               ; preds = %21
  %27 = load i32, ptr %1, align 8, !tbaa !132
  %28 = getelementptr inbounds nuw i8, ptr %1, i64 8
  %29 = load i32, ptr %28, align 8, !tbaa !133
  %30 = getelementptr inbounds nuw i8, ptr %4, i64 16
  %31 = getelementptr inbounds nuw i8, ptr %4, i64 72
  %32 = getelementptr inbounds nuw i8, ptr %4, i64 64
  %33 = getelementptr inbounds nuw i8, ptr %1, i64 64
  %34 = load i32, ptr %33, align 8, !tbaa !117
  call void @Llb4_Nonlin4Sweep(ptr noundef %0, i32 noundef %27, i32 noundef %29, ptr noundef nonnull %30, ptr noundef nonnull %31, ptr noundef nonnull %32, i32 noundef %34) #18
  %35 = load ptr, ptr %5, align 8, !tbaa !104
  %36 = getelementptr inbounds nuw i8, ptr %35, i64 96
  %37 = load i64, ptr %36, align 8, !tbaa !116
  %38 = load ptr, ptr %30, align 8, !tbaa !88
  %39 = getelementptr inbounds nuw i8, ptr %38, i64 752
  store i64 %37, ptr %39, align 8, !tbaa !70
  %.pre = load ptr, ptr %31, align 8, !tbaa !98
  br label %61

40:                                               ; preds = %21
  %41 = call ptr @Llb_Nonlin4CreateOrder(ptr noundef %0)
  %42 = getelementptr inbounds nuw i8, ptr %4, i64 72
  store ptr %41, ptr %42, align 8, !tbaa !98
  %43 = getelementptr inbounds nuw i8, ptr %41, i64 4
  %44 = load i32, ptr %43, align 4, !tbaa !55
  %45 = icmp sgt i32 %44, 0
  br i1 %45, label %.lr.ph.i, label %Vec_IntCountPositive.exit

.lr.ph.i:                                         ; preds = %40
  %46 = getelementptr inbounds nuw i8, ptr %41, i64 8
  %47 = load ptr, ptr %46, align 8, !tbaa !27
  %wide.trip.count.i = zext nneg i32 %44 to i64
  br label %48

48:                                               ; preds = %48, %.lr.ph.i
  %indvars.iv.i = phi i64 [ 0, %.lr.ph.i ], [ %indvars.iv.next.i, %48 ]
  %.08.i = phi i32 [ 0, %.lr.ph.i ], [ %53, %48 ]
  %49 = getelementptr inbounds nuw i32, ptr %47, i64 %indvars.iv.i
  %50 = load i32, ptr %49, align 4, !tbaa !30
  %51 = icmp sgt i32 %50, 0
  %52 = zext i1 %51 to i32
  %53 = add nuw nsw i32 %.08.i, %52
  %indvars.iv.next.i = add nuw nsw i64 %indvars.iv.i, 1
  %exitcond.not.i = icmp eq i64 %indvars.iv.next.i, %wide.trip.count.i
  br i1 %exitcond.not.i, label %Vec_IntCountPositive.exit.loopexit, label %48, !llvm.loop !134

Vec_IntCountPositive.exit.loopexit:               ; preds = %48
  %54 = add nuw nsw i32 %53, 1
  br label %Vec_IntCountPositive.exit

Vec_IntCountPositive.exit:                        ; preds = %Vec_IntCountPositive.exit.loopexit, %40
  %.0.lcssa.i = phi i32 [ 1, %40 ], [ %54, %Vec_IntCountPositive.exit.loopexit ]
  %55 = call ptr @Cudd_Init(i32 noundef %.0.lcssa.i, i32 noundef 0, i32 noundef 256, i32 noundef 262144, i64 noundef 0) #18
  %56 = getelementptr inbounds nuw i8, ptr %4, i64 16
  store ptr %55, ptr %56, align 8, !tbaa !88
  call void @Cudd_AutodynEnable(ptr noundef %55, i32 noundef 6) #18
  call void @Cudd_SetMaxGrowth(ptr noundef %55, double noundef 1.050000e+00) #18
  %57 = load i64, ptr %23, align 8, !tbaa !116
  %58 = getelementptr inbounds nuw i8, ptr %55, i64 752
  store i64 %57, ptr %58, align 8, !tbaa !70
  %59 = call ptr @Llb_Nonlin4DerivePartitions(ptr noundef %55, ptr noundef %0, ptr noundef %41)
  %60 = getelementptr inbounds nuw i8, ptr %4, i64 64
  store ptr %59, ptr %60, align 8, !tbaa !99
  br label %61

61:                                               ; preds = %Vec_IntCountPositive.exit, %26
  %62 = phi ptr [ %41, %Vec_IntCountPositive.exit ], [ %.pre, %26 ]
  %63 = phi ptr [ %55, %Vec_IntCountPositive.exit ], [ %38, %26 ]
  %64 = getelementptr inbounds nuw i8, ptr %4, i64 16
  %65 = getelementptr inbounds nuw i8, ptr %4, i64 72
  call void @Llb_Nonlin4SetupVarMap(ptr noundef nonnull %63, ptr noundef %0, ptr noundef %62)
  %66 = load ptr, ptr %64, align 8, !tbaa !88
  %67 = load ptr, ptr %65, align 8, !tbaa !98
  %68 = load ptr, ptr %5, align 8, !tbaa !104
  %69 = getelementptr inbounds nuw i8, ptr %68, i64 36
  %70 = load i32, ptr %69, align 4, !tbaa !105
  %71 = call ptr @Llb_Nonlin4CreateVars2Q(ptr noundef %66, ptr noundef %0, ptr noundef %67, i32 noundef %70)
  %72 = getelementptr inbounds nuw i8, ptr %4, i64 80
  store ptr %71, ptr %72, align 8, !tbaa !122
  %73 = call noalias dereferenceable_or_null(16) ptr @malloc(i64 noundef 16) #19
  %74 = getelementptr inbounds nuw i8, ptr %73, i64 4
  store i32 0, ptr %74, align 4, !tbaa !23
  store i32 100, ptr %73, align 8, !tbaa !48
  %75 = call noalias dereferenceable_or_null(800) ptr @malloc(i64 noundef 800) #19
  %76 = getelementptr inbounds nuw i8, ptr %73, i64 8
  store ptr %75, ptr %76, align 8, !tbaa !25
  %77 = getelementptr inbounds nuw i8, ptr %4, i64 56
  store ptr %73, ptr %77, align 8, !tbaa !92
  %78 = getelementptr inbounds nuw i8, ptr %1, i64 40
  %79 = load i32, ptr %78, align 8, !tbaa !135
  %.not42 = icmp eq i32 %79, 0
  br i1 %.not42, label %82, label %80

80:                                               ; preds = %61
  %81 = load ptr, ptr %64, align 8, !tbaa !88
  call void @Llb_Nonlin4Reorder(ptr noundef %81, i32 noundef 0, i32 noundef 1)
  br label %82

82:                                               ; preds = %80, %61
  ret ptr %4
}